target datalayout = "e-m:e-p270:32:32-p271:32:32-p272:64:64-i64:64-i128:128-f80:128-n8:16:32:64-S128"
target triple = "x86_64-unknown-linux-gnu"

%"class.Assimp::ObjFileParser" = type { %"class.__gnu_cxx::__normal_iterator", %"class.__gnu_cxx::__normal_iterator", %"class.std::unique_ptr", i32, [4096 x i8], ptr, ptr, %"class.std::__cxx11::basic_string" }
%"class.__gnu_cxx::__normal_iterator" = type { ptr }
%"class.std::unique_ptr" = type { %"struct.std::__uniq_ptr_data" }
%"struct.std::__uniq_ptr_data" = type { %"class.std::__uniq_ptr_impl" }
%"class.std::__uniq_ptr_impl" = type { %"class.std::tuple" }
%"class.std::tuple" = type { %"struct.std::_Tuple_impl" }
%"struct.std::_Tuple_impl" = type { %"struct.std::_Head_base.1" }
%"struct.std::_Head_base.1" = type { ptr }
%"class.std::__cxx11::basic_string" = type { %"struct.std::__cxx11::basic_string<char>::_Alloc_hider", i64, %union.anon }
%"struct.std::__cxx11::basic_string<char>::_Alloc_hider" = type { ptr }
%union.anon = type { i64, [8 x i8] }

; Function Attrs: mustprogress nounwind uwtable
define linkonce_odr noundef nonnull align 8 dereferenceable(8) ptr @_ZN9__gnu_cxx17__normal_iteratorIPcSt6vectorIcSaIcEEEmmEv(ptr noundef nonnull align 8 dereferenceable(8) %this) #0 comdat align 2 {
entry:
  %this.addr = alloca ptr, align 8
  store ptr %this, ptr %this.addr, align 8
  %this1 = load ptr, ptr %this.addr, align 8
  %_M_current = getelementptr inbounds %"class.__gnu_cxx::__normal_iterator", ptr %this1, i32 0, i32 0
  %0 = load ptr, ptr %_M_current, align 8
  %incdec.ptr = getelementptr inbounds i8, ptr %0, i32 -1
  store ptr %incdec.ptr, ptr %_M_current, align 8
  ret ptr %this1
}

; Function Attrs: mustprogress nounwind uwtable
define linkonce_odr noundef zeroext i1 @_ZN9__gnu_cxxeqIPcSt6vectorIcSaIcEEEEbRKNS_17__normal_iteratorIT_T0_EESA_(ptr noundef nonnull align 8 dereferenceable(8) %__lhs, ptr noundef nonnull align 8 dereferenceable(8) %__rhs) #0 comdat {
entry:
  %__lhs.addr = alloca ptr, align 8
  %__rhs.addr = alloca ptr, align 8
  store ptr %__lhs, ptr %__lhs.addr, align 8
  store ptr %__rhs, ptr %__rhs.addr, align 8
  %0 = load ptr, ptr %__lhs.addr, align 8
  %call = call noundef nonnull align 8 dereferenceable(8) ptr @_ZNK9__gnu_cxx17__normal_iteratorIPcSt6vectorIcSaIcEEE4baseEv(ptr noundef nonnull align 8 dereferenceable(8) %0) #14
  %1 = load ptr, ptr %call, align 8
  %2 = load ptr, ptr %__rhs.addr, align 8
  %call1 = call noundef nonnull align 8 dereferenceable(8) ptr @_ZNK9__gnu_cxx17__normal_iteratorIPcSt6vectorIcSaIcEEE4baseEv(ptr noundef nonnull align 8 dereferenceable(8) %2) #14
  %3 = load ptr, ptr %call1, align 8
  %cmp = icmp eq ptr %1, %3
  ret i1 %cmp
}

; Function Attrs: mustprogress nounwind uwtable
define linkonce_odr noundef nonnull align 8 dereferenceable(8) ptr @_ZNK9__gnu_cxx17__normal_iteratorIPcSt6vectorIcSaIcEEE4baseEv(ptr noundef nonnull align 8 dereferenceable(8) %this) #0 comdat align 2 {
entry:
  %this.addr = alloca ptr, align 8
  store ptr %this, ptr %this.addr, align 8
  %this1 = load ptr, ptr %this.addr, align 8
  %_M_current = getelementptr inbounds %"class.__gnu_cxx::__normal_iterator", ptr %this1, i32 0, i32 0
  ret ptr %_M_current
}

; Function Attrs: mustprogress nounwind uwtable
define linkonce_odr noundef zeroext i1 @_ZN9__gnu_cxxneIPcSt6vectorIcSaIcEEEEbRKNS_17__normal_iteratorIT_T0_EESA_(ptr noundef nonnull align 8 dereferenceable(8) %__lhs, ptr noundef nonnull align 8 dereferenceable(8) %__rhs) #0 comdat {
entry:
  %__lhs.addr = alloca ptr, align 8
  %__rhs.addr = alloca ptr, align 8
  store ptr %__lhs, ptr %__lhs.addr, align 8
  store ptr %__rhs, ptr %__rhs.addr, align 8
  %0 = load ptr, ptr %__lhs.addr, align 8
  %call = call noundef nonnull align 8 dereferenceable(8) ptr @_ZNK9__gnu_cxx17__normal_iteratorIPcSt6vectorIcSaIcEEE4baseEv(ptr noundef nonnull align 8 dereferenceable(8) %0) #14
  %1 = load ptr, ptr %call, align 8
  %2 = load ptr, ptr %__rhs.addr, align 8
  %call1 = call noundef nonnull align 8 dereferenceable(8) ptr @_ZNK9__gnu_cxx17__normal_iteratorIPcSt6vectorIcSaIcEEE4baseEv(ptr noundef nonnull align 8 dereferenceable(8) %2) #14
  %3 = load ptr, ptr %call1, align 8
  %cmp = icmp ne ptr %1, %3
  ret i1 %cmp
}

; Function Attrs: mustprogress nounwind uwtable
define linkonce_odr noundef nonnull align 8 dereferenceable(8) ptr @_ZN9__gnu_cxx17__normal_iteratorIPcSt6vectorIcSaIcEEEppEv(ptr noundef nonnull align 8 dereferenceable(8) %this) #0 comdat align 2 {
entry:
  %this.addr = alloca ptr, align 8
  store ptr %this, ptr %this.addr, align 8
  %this1 = load ptr, ptr %this.addr, align 8
  %_M_current = getelementptr inbounds %"class.__gnu_cxx::__normal_iterator", ptr %this1, i32 0, i32 0
  %0 = load ptr, ptr %_M_current, align 8
  %incdec.ptr = getelementptr inbounds i8, ptr %0, i32 1
  store ptr %incdec.ptr, ptr %_M_current, align 8
  ret ptr %this1
}

; Function Attrs: mustprogress nounwind uwtable
define linkonce_odr hidden noundef zeroext i1 @_ZN6Assimp9IsLineEndIcEEbT_(i8 noundef signext %in) #0 comdat {
entry:
  %in.addr = alloca i8, align 1
  store i8 %in, ptr %in.addr, align 1
  %0 = load i8, ptr %in.addr, align 1
  %conv = sext i8 %0 to i32
  %cmp = icmp eq i32 %conv, 13
  br i1 %cmp, label %lor.end, label %lor.lhs.false

lor.lhs.false:                                    ; preds = %entry
  %1 = load i8, ptr %in.addr, align 1
  %conv1 = sext i8 %1 to i32
  %cmp2 = icmp eq i32 %conv1, 10
  br i1 %cmp2, label %lor.end, label %lor.lhs.false3

lor.lhs.false3:                                   ; preds = %lor.lhs.false
  %2 = load i8, ptr %in.addr, align 1
  %conv4 = sext i8 %2 to i32
  %cmp5 = icmp eq i32 %conv4, 0
  br i1 %cmp5, label %lor.end, label %lor.rhs

lor.rhs:                                          ; preds = %lor.lhs.false3
  %3 = load i8, ptr %in.addr, align 1
  %conv6 = sext i8 %3 to i32
  %cmp7 = icmp eq i32 %conv6, 12
  br label %lor.end

lor.end:                                          ; preds = %lor.rhs, %lor.lhs.false3, %lor.lhs.false, %entry
  %4 = phi i1 [ true, %lor.lhs.false3 ], [ true, %lor.lhs.false ], [ true, %entry ], [ %cmp7, %lor.rhs ]
  ret i1 %4
}

; Function Attrs: mustprogress nounwind uwtable
define linkonce_odr noundef nonnull align 1 dereferenceable(1) ptr @_ZNK9__gnu_cxx17__normal_iteratorIPcSt6vectorIcSaIcEEEdeEv(ptr noundef nonnull align 8 dereferenceable(8) %this) #0 comdat align 2 {
entry:
  %this.addr = alloca ptr, align 8
  store ptr %this, ptr %this.addr, align 8
  %this1 = load ptr, ptr %this.addr, align 8
  %_M_current = getelementptr inbounds %"class.__gnu_cxx::__normal_iterator", ptr %this1, i32 0, i32 0
  %0 = load ptr, ptr %_M_current, align 8
  ret ptr %0
}

; Function Attrs: mustprogress nounwind uwtable
define linkonce_odr hidden noundef zeroext i1 @_ZN6Assimp13isEndOfBufferIN9__gnu_cxx17__normal_iteratorIPcSt6vectorIcSaIcEEEEEEbT_S8_(ptr %it.coerce, ptr %end.coerce) #0 comdat {
entry:
  %retval = alloca i1, align 1
  %it = alloca %"class.__gnu_cxx::__normal_iterator", align 8
  %end = alloca %"class.__gnu_cxx::__normal_iterator", align 8
  %coerce.dive = getelementptr inbounds %"class.__gnu_cxx::__normal_iterator", ptr %it, i32 0, i32 0
  store ptr %it.coerce, ptr %coerce.dive, align 8
  %coerce.dive1 = getelementptr inbounds %"class.__gnu_cxx::__normal_iterator", ptr %end, i32 0, i32 0
  store ptr %end.coerce, ptr %coerce.dive1, align 8
  %call = call noundef zeroext i1 @_ZN9__gnu_cxxeqIPcSt6vectorIcSaIcEEEEbRKNS_17__normal_iteratorIT_T0_EESA_(ptr noundef nonnull align 8 dereferenceable(8) %it, ptr noundef nonnull align 8 dereferenceable(8) %end) #14
  br i1 %call, label %if.then, label %if.end

if.then:                                          ; preds = %entry
  store i1 true, ptr %retval, align 1
  br label %return

if.end:                                           ; preds = %entry
  %call2 = call noundef nonnull align 8 dereferenceable(8) ptr @_ZN9__gnu_cxx17__normal_iteratorIPcSt6vectorIcSaIcEEEmmEv(ptr noundef nonnull align 8 dereferenceable(8) %end) #14
  %call3 = call noundef zeroext i1 @_ZN9__gnu_cxxeqIPcSt6vectorIcSaIcEEEEbRKNS_17__normal_iteratorIT_T0_EESA_(ptr noundef nonnull align 8 dereferenceable(8) %it, ptr noundef nonnull align 8 dereferenceable(8) %end) #14
  store i1 %call3, ptr %retval, align 1
  br label %return

return:                                           ; preds = %if.end, %if.then
  %0 = load i1, ptr %retval, align 1
  ret i1 %0
}

; Function Attrs: mustprogress nounwind uwtable
define linkonce_odr noundef zeroext i1 @_ZN9__gnu_cxxgeIPcSt6vectorIcSaIcEEEEbRKNS_17__normal_iteratorIT_T0_EESA_(ptr noundef nonnull align 8 dereferenceable(8) %__lhs, ptr noundef nonnull align 8 dereferenceable(8) %__rhs) #0 comdat {
entry:
  %__lhs.addr = alloca ptr, align 8
  %__rhs.addr = alloca ptr, align 8
  store ptr %__lhs, ptr %__lhs.addr, align 8
  store ptr %__rhs, ptr %__rhs.addr, align 8
  %0 = load ptr, ptr %__lhs.addr, align 8
  %call = call noundef nonnull align 8 dereferenceable(8) ptr @_ZNK9__gnu_cxx17__normal_iteratorIPcSt6vectorIcSaIcEEE4baseEv(ptr noundef nonnull align 8 dereferenceable(8) %0) #14
  %1 = load ptr, ptr %call, align 8
  %2 = load ptr, ptr %__rhs.addr, align 8
  %call1 = call noundef nonnull align 8 dereferenceable(8) ptr @_ZNK9__gnu_cxx17__normal_iteratorIPcSt6vectorIcSaIcEEE4baseEv(ptr noundef nonnull align 8 dereferenceable(8) %2) #14
  %3 = load ptr, ptr %call1, align 8
  %cmp = icmp uge ptr %1, %3
  ret i1 %cmp
}

; Function Attrs: mustprogress uwtable
define linkonce_odr hidden ptr @_ZN6Assimp8skipLineIN9__gnu_cxx17__normal_iteratorIPcSt6vectorIcSaIcEEEEEET_S8_S8_Rj(ptr %it.coerce, ptr %end.coerce, ptr noundef nonnull align 4 dereferenceable(4) %uiLine) #2 comdat {
entry:
  %retval = alloca %"class.__gnu_cxx::__normal_iterator", align 8
  %it = alloca %"class.__gnu_cxx::__normal_iterator", align 8
  %end = alloca %"class.__gnu_cxx::__normal_iterator", align 8
  %uiLine.addr = alloca ptr, align 8
  %agg.tmp = alloca %"class.__gnu_cxx::__normal_iterator", align 8
  %agg.tmp2 = alloca %"class.__gnu_cxx::__normal_iterator", align 8
  %coerce.dive = getelementptr inbounds %"class.__gnu_cxx::__normal_iterator", ptr %it, i32 0, i32 0
  store ptr %it.coerce, ptr %coerce.dive, align 8
  %coerce.dive1 = getelementptr inbounds %"class.__gnu_cxx::__normal_iterator", ptr %end, i32 0, i32 0
  store ptr %end.coerce, ptr %coerce.dive1, align 8
  store ptr %uiLine, ptr %uiLine.addr, align 8
  %call = call noundef zeroext i1 @_ZN9__gnu_cxxgeIPcSt6vectorIcSaIcEEEEbRKNS_17__normal_iteratorIT_T0_EESA_(ptr noundef nonnull align 8 dereferenceable(8) %it, ptr noundef nonnull align 8 dereferenceable(8) %end) #14
  br i1 %call, label %if.then, label %if.end

if.then:                                          ; preds = %entry
  call void @llvm.memcpy.p0.p0.i64(ptr align 8 %retval, ptr align 8 %it, i64 8, i1 false)
  br label %return

if.end:                                           ; preds = %entry
  br label %while.cond

while.cond:                                       ; preds = %while.body, %if.end
  call void @llvm.memcpy.p0.p0.i64(ptr align 8 %agg.tmp, ptr align 8 %it, i64 8, i1 false)
  call void @llvm.memcpy.p0.p0.i64(ptr align 8 %agg.tmp2, ptr align 8 %end, i64 8, i1 false)
  %coerce.dive3 = getelementptr inbounds %"class.__gnu_cxx::__normal_iterator", ptr %agg.tmp, i32 0, i32 0
  %0 = load ptr, ptr %coerce.dive3, align 8
  %coerce.dive4 = getelementptr inbounds %"class.__gnu_cxx::__normal_iterator", ptr %agg.tmp2, i32 0, i32 0
  %1 = load ptr, ptr %coerce.dive4, align 8
  %call5 = call noundef zeroext i1 @_ZN6Assimp13isEndOfBufferIN9__gnu_cxx17__normal_iteratorIPcSt6vectorIcSaIcEEEEEEbT_S8_(ptr %0, ptr %1)
  br i1 %call5, label %land.end, label %land.rhs

land.rhs:                                         ; preds = %while.cond
  %call6 = call noundef nonnull align 1 dereferenceable(1) ptr @_ZNK9__gnu_cxx17__normal_iteratorIPcSt6vectorIcSaIcEEEdeEv(ptr noundef nonnull align 8 dereferenceable(8) %it) #14
  %2 = load i8, ptr %call6, align 1
  %call7 = call noundef zeroext i1 @_ZN6Assimp9IsLineEndIcEEbT_(i8 noundef signext %2)
  %lnot = xor i1 %call7, true
  br label %land.end

land.end:                                         ; preds = %land.rhs, %while.cond
  %3 = phi i1 [ false, %while.cond ], [ %lnot, %land.rhs ]
  br i1 %3, label %while.body, label %while.end

while.body:                                       ; preds = %land.end
  %call8 = call noundef nonnull align 8 dereferenceable(8) ptr @_ZN9__gnu_cxx17__normal_iteratorIPcSt6vectorIcSaIcEEEppEv(ptr noundef nonnull align 8 dereferenceable(8) %it) #14
  br label %while.cond, !llvm.loop !19

while.end:                                        ; preds = %land.end
  %call9 = call noundef zeroext i1 @_ZN9__gnu_cxxneIPcSt6vectorIcSaIcEEEEbRKNS_17__normal_iteratorIT_T0_EESA_(ptr noundef nonnull align 8 dereferenceable(8) %it, ptr noundef nonnull align 8 dereferenceable(8) %end) #14
  br i1 %call9, label %if.then10, label %if.end12

if.then10:                                        ; preds = %while.end
  %call11 = call noundef nonnull align 8 dereferenceable(8) ptr @_ZN9__gnu_cxx17__normal_iteratorIPcSt6vectorIcSaIcEEEppEv(ptr noundef nonnull align 8 dereferenceable(8) %it) #14
  %4 = load ptr, ptr %uiLine.addr, align 8
  %5 = load i32, ptr %4, align 4
  %inc = add i32 %5, 1
  store i32 %inc, ptr %4, align 4
  br label %if.end12

if.end12:                                         ; preds = %if.then10, %while.end
  br label %while.cond13

while.cond13:                                     ; preds = %while.body21, %if.end12
  %call14 = call noundef zeroext i1 @_ZN9__gnu_cxxneIPcSt6vectorIcSaIcEEEEbRKNS_17__normal_iteratorIT_T0_EESA_(ptr noundef nonnull align 8 dereferenceable(8) %it, ptr noundef nonnull align 8 dereferenceable(8) %end) #14
  br i1 %call14, label %land.rhs15, label %land.end20

land.rhs15:                                       ; preds = %while.cond13
  %call16 = call noundef nonnull align 1 dereferenceable(1) ptr @_ZNK9__gnu_cxx17__normal_iteratorIPcSt6vectorIcSaIcEEEdeEv(ptr noundef nonnull align 8 dereferenceable(8) %it) #14
  %6 = load i8, ptr %call16, align 1
  %conv = sext i8 %6 to i32
  %cmp = icmp eq i32 %conv, 9
  br i1 %cmp, label %lor.end, label %lor.rhs

lor.rhs:                                          ; preds = %land.rhs15
  %call17 = call noundef nonnull align 1 dereferenceable(1) ptr @_ZNK9__gnu_cxx17__normal_iteratorIPcSt6vectorIcSaIcEEEdeEv(ptr noundef nonnull align 8 dereferenceable(8) %it) #14
  %7 = load i8, ptr %call17, align 1
  %conv18 = sext i8 %7 to i32
  %cmp19 = icmp eq i32 %conv18, 32
  br label %lor.end

lor.end:                                          ; preds = %lor.rhs, %land.rhs15
  %8 = phi i1 [ true, %land.rhs15 ], [ %cmp19, %lor.rhs ]
  br label %land.end20

land.end20:                                       ; preds = %lor.end, %while.cond13
  %9 = phi i1 [ false, %while.cond13 ], [ %8, %lor.end ]
  br i1 %9, label %while.body21, label %while.end23

while.body21:                                     ; preds = %land.end20
  %call22 = call noundef nonnull align 8 dereferenceable(8) ptr @_ZN9__gnu_cxx17__normal_iteratorIPcSt6vectorIcSaIcEEEppEv(ptr noundef nonnull align 8 dereferenceable(8) %it) #14
  br label %while.cond13, !llvm.loop !20

while.end23:                                      ; preds = %land.end20
  call void @llvm.memcpy.p0.p0.i64(ptr align 8 %retval, ptr align 8 %it, i64 8, i1 false)
  br label %return

return:                                           ; preds = %while.end23, %if.then
  %coerce.dive24 = getelementptr inbounds %"class.__gnu_cxx::__normal_iterator", ptr %retval, i32 0, i32 0
  %10 = load ptr, ptr %coerce.dive24, align 8
  ret ptr %10
}

; Function Attrs: mustprogress uwtable
define void @_ZN6Assimp13ObjFileParser27getGroupNumberAndResolutionEv(ptr noundef nonnull align 8 dereferenceable(4176) %this) #2 align 2 {
entry:
  %this.addr = alloca ptr, align 8
  %ref.tmp = alloca %"class.__gnu_cxx::__normal_iterator", align 8
  %agg.tmp = alloca %"class.__gnu_cxx::__normal_iterator", align 8
  %agg.tmp2 = alloca %"class.__gnu_cxx::__normal_iterator", align 8
  store ptr %this, ptr %this.addr, align 8
  %this1 = load ptr, ptr %this.addr, align 8
  %m_DataIt = getelementptr inbounds %"class.Assimp::ObjFileParser", ptr %this1, i32 0, i32 0
  call void @llvm.memcpy.p0.p0.i64(ptr align 8 %agg.tmp, ptr align 8 %m_DataIt, i64 8, i1 false)
  %m_DataItEnd = getelementptr inbounds %"class.Assimp::ObjFileParser", ptr %this1, i32 0, i32 1
  call void @llvm.memcpy.p0.p0.i64(ptr align 8 %agg.tmp2, ptr align 8 %m_DataItEnd, i64 8, i1 false)
  %m_uiLine = getelementptr inbounds %"class.Assimp::ObjFileParser", ptr %this1, i32 0, i32 3
  %coerce.dive = getelementptr inbounds %"class.__gnu_cxx::__normal_iterator", ptr %agg.tmp, i32 0, i32 0
  %0 = load ptr, ptr %coerce.dive, align 8
  %coerce.dive3 = getelementptr inbounds %"class.__gnu_cxx::__normal_iterator", ptr %agg.tmp2, i32 0, i32 0
  %1 = load ptr, ptr %coerce.dive3, align 8
  %call = call ptr @_ZN6Assimp8skipLineIN9__gnu_cxx17__normal_iteratorIPcSt6vectorIcSaIcEEEEEET_S8_S8_Rj(ptr %0, ptr %1, ptr noundef nonnull align 4 dereferenceable(4) %m_uiLine)
  %coerce.dive4 = getelementptr inbounds %"class.__gnu_cxx::__normal_iterator", ptr %ref.tmp, i32 0, i32 0
  store ptr %call, ptr %coerce.dive4, align 8
  %m_DataIt5 = getelementptr inbounds %"class.Assimp::ObjFileParser", ptr %this1, i32 0, i32 0
  call void @llvm.memcpy.p0.p0.i64(ptr align 8 %m_DataIt5, ptr align 8 %ref.tmp, i64 8, i1 false)
  ret void
}